; Function Attrs: nounwind uwtable
define dso_local i32 @pg_encoding_verifymbstr(i32 noundef %0, ptr noundef %1, i32 noundef %2) local_unnamed_addr #7 {
  %or.cond = icmp ult i32 %0, 42
  br i1 %or.cond, label %4, label %9

4:                                                ; preds = %3
  %5 = zext nneg i32 %0 to i64
  %6 = getelementptr inbounds nuw [42 x %struct.pg_wchar_tbl], ptr @pg_wchar_table, i64 0, i64 %5, i32 5
  %7 = load ptr, ptr %6, align 8
  %8 = tail call i32 %7(ptr noundef %1, i32 noundef %2) #10
  br label %17

9:                                                ; preds = %3
  %10 = sext i32 %2 to i64
  %11 = tail call ptr @memchr(ptr noundef %1, i32 noundef 0, i64 noundef %10) #9
  %12 = icmp eq ptr %11, null
  %13 = ptrtoint ptr %11 to i64
  %14 = ptrtoint ptr %1 to i64
  %15 = sub i64 %13, %14
  %16 = trunc i64 %15 to i32
  %.0.i = select i1 %12, i32 %2, i32 %16
  br label %17

17:                                               ; preds = %9, %4
  %18 = phi i32 [ %8, %4 ], [ %.0.i, %9 ]
  ret i32 %18
}